target datalayout = "e-m:e-p270:32:32-p271:32:32-p272:64:64-i64:64-i128:128-f80:128-n8:16:32:64-S128"
target triple = "x86_64-unknown-linux-gnu"

%struct.SCSISense = type { i8, i8, i8 }
%struct.VirtIOSCSICommon = type { %struct.VirtIODevice, %struct.VirtIOSCSIConf, i32, i32, ptr, ptr, ptr }
%struct.VirtIODevice = type { %struct.DeviceState, ptr, i8, i8, i16, i64, i64, i64, i64, ptr, i16, i32, i32, ptr, %struct.MemoryListener, i16, i8, i8, i8, i8, i8, i8, i8, i8, i8, ptr, ptr, i8, i8, ptr, ptr, %union.anon.1, %struct.EventNotifier, i8 }
%struct.DeviceState = type { %struct.Object, ptr, ptr, i8, i8, i64, ptr, i32, i8, ptr, %struct.NamedGPIOListHead, %struct.NamedClockListHead, %struct.BusStateHead, i32, i32, i32, %struct.ResettableState, ptr, %struct.MemReentrancyGuard }
%struct.Object = type { ptr, ptr, ptr, i32, ptr }
%struct.NamedGPIOListHead = type { ptr }
%struct.NamedClockListHead = type { ptr }
%struct.BusStateHead = type { ptr }
%struct.ResettableState = type { i32, i8, i8 }
%struct.MemReentrancyGuard = type { i8 }
%struct.MemoryListener = type { ptr, ptr, ptr, ptr, ptr, ptr, ptr, ptr, ptr, ptr, ptr, ptr, ptr, ptr, ptr, ptr, ptr, i32, ptr, ptr, %union.anon, %union.anon.0 }
%union.anon = type { %struct.QTailQLink }
%struct.QTailQLink = type { ptr, ptr }
%union.anon.0 = type { %struct.QTailQLink }
%union.anon.1 = type { %struct.QTailQLink }
%struct.EventNotifier = type { i32, i32, i8 }
%struct.VirtIOSCSIConf = type { i32, i32, i8, i32, i32, ptr, ptr, %struct.CharBackend, i32, ptr }
%struct.CharBackend = type { ptr, ptr, ptr, ptr, ptr, ptr, i32, i32 }
%struct.VirtIOSCSI = type { %struct.VirtIOSCSICommon, %struct.SCSIBus, i32, i8, ptr, %union.anon.3, ptr, i8, i8, i8, i8, i32 }
%struct.SCSIBus = type { %struct.BusState, i32, %struct.SCSISense, ptr, i32 }
%struct.BusState = type { %struct.Object, ptr, ptr, ptr, i32, i8, i8, i32, %union.BusChildHead, %struct.BusStateEntry, %struct.ResettableState }
%union.BusChildHead = type { %struct.QTailQLink }
%struct.BusStateEntry = type { ptr, ptr }
%union.anon.3 = type { %struct.QTailQLink }
%struct.VirtIOSCSIReq = type <{ %struct.VirtQueueElement, ptr, ptr, %struct.QEMUSGList, %struct.QEMUIOVector, %union.anon.6, i32, [4 x i8], ptr, i64, i32, %union.anon.7, %union.anon.8, [4 x i8] }>
%struct.VirtQueueElement = type { i32, i32, i32, i32, i32, ptr, ptr, ptr, ptr }
%struct.QEMUSGList = type { ptr, i32, i32, i64, ptr, ptr }
%struct.QEMUIOVector = type { ptr, i32, %union.anon.4 }
%union.anon.4 = type { %struct.anon }
%struct.anon = type { i32, %struct.iovec }
%struct.iovec = type { ptr, i64 }
%union.anon.6 = type { %struct.QTailQLink }
%union.anon.7 = type { %struct.virtio_scsi_event }
%struct.virtio_scsi_event = type { i32, [8 x i8], i32 }
%union.anon.8 = type { %struct.virtio_scsi_ctrl_tmf_req }
%struct.virtio_scsi_ctrl_tmf_req = type { i32, i32, [8 x i8], i64 }
%struct.SCSIRequest = type { ptr, ptr, ptr, i32, i32, i32, i16, i16, ptr, i64, %struct.SCSICommand, %struct.NotifierList, [252 x i8], i32, i8, i8, i8, i8, ptr, ptr, %union.anon.11 }
%struct.SCSICommand = type { [16 x i8], i32, i64, i64, i32 }
%struct.NotifierList = type { %struct.anon.10 }
%struct.anon.10 = type { ptr }
%union.anon.11 = type { %struct.QTailQLink }
%struct.anon.5 = type { [12 x i8], i64 }

@.str.3 = private unnamed_addr constant [14 x i8] c"virtio-device\00", align 1
@.str.4 = private unnamed_addr constant [105 x i8] c"/home/dtcxzyw/WorkSpace/Projects/compilers/llvm-opt-benchmark/bench/qemu/qemu/include/hw/virtio/virtio.h\00", align 1
@__func__.VIRTIO_DEVICE = private unnamed_addr constant [14 x i8] c"VIRTIO_DEVICE\00", align 1

; Function Attrs: nounwind sspstrong uwtable
define internal void @virtio_scsi_free_req(ptr noundef %req) #0 {
entry:
  %req.addr = alloca ptr, align 8
  store ptr %req, ptr %req.addr, align 8
  %0 = load ptr, ptr %req.addr, align 8
  %resp_iov = getelementptr inbounds %struct.VirtIOSCSIReq, ptr %0, i32 0, i32 4
  call void @qemu_iovec_destroy(ptr noundef %resp_iov)
  %1 = load ptr, ptr %req.addr, align 8
  %qsgl = getelementptr inbounds %struct.VirtIOSCSIReq, ptr %1, i32 0, i32 3
  call void @qemu_sglist_destroy(ptr noundef %qsgl)
  %2 = load ptr, ptr %req.addr, align 8
  call void @g_free(ptr noundef %2)
  ret void
}

; Function Attrs: nounwind sspstrong uwtable
define internal ptr @VIRTIO_DEVICE(ptr noundef %obj) #0 {
entry:
  %obj.addr = alloca ptr, align 8
  store ptr %obj, ptr %obj.addr, align 8
  %0 = load ptr, ptr %obj.addr, align 8
  %call = call ptr @object_dynamic_cast_assert(ptr noundef %0, ptr noundef @.str.3, ptr noundef @.str.4, i32 noundef 85, ptr noundef @__func__.VIRTIO_DEVICE)
  ret ptr %call
}

; Function Attrs: nounwind sspstrong uwtable
define internal void @virtio_scsi_complete_req(ptr noundef %req) #0 {
entry:
  %req.addr = alloca ptr, align 8
  %s = alloca ptr, align 8
  %vq = alloca ptr, align 8
  %vdev = alloca ptr, align 8
  store ptr %req, ptr %req.addr, align 8
  %0 = load ptr, ptr %req.addr, align 8
  %dev = getelementptr inbounds %struct.VirtIOSCSIReq, ptr %0, i32 0, i32 1
  %1 = load ptr, ptr %dev, align 8
  store ptr %1, ptr %s, align 8
  %2 = load ptr, ptr %req.addr, align 8
  %vq1 = getelementptr inbounds %struct.VirtIOSCSIReq, ptr %2, i32 0, i32 2
  %3 = load ptr, ptr %vq1, align 8
  store ptr %3, ptr %vq, align 8
  %4 = load ptr, ptr %s, align 8
  %call = call ptr @VIRTIO_DEVICE(ptr noundef %4)
  store ptr %call, ptr %vdev, align 8
  %5 = load ptr, ptr %req.addr, align 8
  %resp_iov = getelementptr inbounds %struct.VirtIOSCSIReq, ptr %5, i32 0, i32 4
  %6 = load ptr, ptr %req.addr, align 8
  %resp = getelementptr inbounds %struct.VirtIOSCSIReq, ptr %6, i32 0, i32 11
  %7 = load ptr, ptr %req.addr, align 8
  %resp_size = getelementptr inbounds %struct.VirtIOSCSIReq, ptr %7, i32 0, i32 9
  %8 = load i64, ptr %resp_size, align 8
  %call2 = call i64 @qemu_iovec_from_buf(ptr noundef %resp_iov, i64 noundef 0, ptr noundef %resp, i64 noundef %8)
  %9 = load ptr, ptr %vq, align 8
  %10 = load ptr, ptr %req.addr, align 8
  %elem = getelementptr inbounds %struct.VirtIOSCSIReq, ptr %10, i32 0, i32 0
  %11 = load ptr, ptr %req.addr, align 8
  %qsgl = getelementptr inbounds %struct.VirtIOSCSIReq, ptr %11, i32 0, i32 3
  %size = getelementptr inbounds %struct.QEMUSGList, ptr %qsgl, i32 0, i32 3
  %12 = load i64, ptr %size, align 8
  %13 = load ptr, ptr %req.addr, align 8
  %resp_iov3 = getelementptr inbounds %struct.VirtIOSCSIReq, ptr %13, i32 0, i32 4
  %14 = getelementptr inbounds %struct.QEMUIOVector, ptr %resp_iov3, i32 0, i32 2
  %size4 = getelementptr inbounds %struct.anon.5, ptr %14, i32 0, i32 1
  %15 = load i64, ptr %size4, align 8
  %add = add i64 %12, %15
  %conv = trunc i64 %add to i32
  call void @virtqueue_push(ptr noundef %9, ptr noundef %elem, i32 noundef %conv)
  %16 = load ptr, ptr %s, align 8
  %dataplane_started = getelementptr inbounds %struct.VirtIOSCSI, ptr %16, i32 0, i32 7
  %17 = load i8, ptr %dataplane_started, align 8
  %tobool = trunc i8 %17 to i1
  br i1 %tobool, label %land.lhs.true, label %if.else

land.lhs.true:                                    ; preds = %entry
  %18 = load ptr, ptr %s, align 8
  %dataplane_fenced = getelementptr inbounds %struct.VirtIOSCSI, ptr %18, i32 0, i32 10
  %19 = load i8, ptr %dataplane_fenced, align 1
  %tobool6 = trunc i8 %19 to i1
  br i1 %tobool6, label %if.else, label %if.then

if.then:                                          ; preds = %land.lhs.true
  %20 = load ptr, ptr %vdev, align 8
  %21 = load ptr, ptr %vq, align 8
  call void @virtio_notify_irqfd(ptr noundef %20, ptr noundef %21)
  br label %if.end

if.else:                                          ; preds = %land.lhs.true, %entry
  %22 = load ptr, ptr %vdev, align 8
  %23 = load ptr, ptr %vq, align 8
  call void @virtio_notify(ptr noundef %22, ptr noundef %23)
  br label %if.end

if.end:                                           ; preds = %if.else, %if.then
  %24 = load ptr, ptr %req.addr, align 8
  %sreq = getelementptr inbounds %struct.VirtIOSCSIReq, ptr %24, i32 0, i32 8
  %25 = load ptr, ptr %sreq, align 8
  %tobool7 = icmp ne ptr %25, null
  br i1 %tobool7, label %if.then8, label %if.end11

if.then8:                                         ; preds = %if.end
  %26 = load ptr, ptr %req.addr, align 8
  %sreq9 = getelementptr inbounds %struct.VirtIOSCSIReq, ptr %26, i32 0, i32 8
  %27 = load ptr, ptr %sreq9, align 8
  %hba_private = getelementptr inbounds %struct.SCSIRequest, ptr %27, i32 0, i32 8
  store ptr null, ptr %hba_private, align 8
  %28 = load ptr, ptr %req.addr, align 8
  %sreq10 = getelementptr inbounds %struct.VirtIOSCSIReq, ptr %28, i32 0, i32 8
  %29 = load ptr, ptr %sreq10, align 8
  call void @scsi_req_unref(ptr noundef %29)
  br label %if.end11

if.end11:                                         ; preds = %if.then8, %if.end
  %30 = load ptr, ptr %req.addr, align 8
  call void @virtio_scsi_free_req(ptr noundef %30)
  ret void
}