; Function Attrs: nounwind sspstrong uwtable
define internal fastcc void @virtio_scsi_complete_req(ptr noundef %req) unnamed_addr #0 {
entry:
  %dev = getelementptr inbounds nuw i8, ptr %req, i64 56
  %0 = load ptr, ptr %dev, align 8
  %vq1 = getelementptr inbounds nuw i8, ptr %req, i64 64
  %1 = load ptr, ptr %vq1, align 8
  %call.i = tail call ptr @object_dynamic_cast_assert(ptr noundef %0, ptr noundef nonnull @.str.3, ptr noundef nonnull @.str.4, i32 noundef 85, ptr noundef nonnull @__func__.VIRTIO_DEVICE) #13
  %resp_iov = getelementptr inbounds nuw i8, ptr %req, i64 112
  %resp = getelementptr inbounds nuw i8, ptr %req, i64 196
  %resp_size = getelementptr inbounds nuw i8, ptr %req, i64 184
  %2 = load i64, ptr %resp_size, align 8
  %call2 = tail call i64 @qemu_iovec_from_buf(ptr noundef nonnull %resp_iov, i64 noundef 0, ptr noundef nonnull %resp, i64 noundef %2) #13
  %size = getelementptr inbounds nuw i8, ptr %req, i64 88
  %3 = load i64, ptr %size, align 8
  %size4 = getelementptr inbounds nuw i8, ptr %req, i64 144
  %4 = load i64, ptr %size4, align 8
  %add = add i64 %4, %3
  %conv = trunc i64 %add to i32
  tail call void @virtqueue_push(ptr noundef %1, ptr noundef %req, i32 noundef %conv) #13
  %dataplane_started = getelementptr inbounds nuw i8, ptr %0, i64 848
  %5 = load i8, ptr %dataplane_started, align 8
  %tobool = trunc i8 %5 to i1
  br i1 %tobool, label %land.lhs.true, label %if.else

land.lhs.true:                                    ; preds = %entry
  %dataplane_fenced = getelementptr inbounds nuw i8, ptr %0, i64 851
  %6 = load i8, ptr %dataplane_fenced, align 1
  %tobool6 = trunc i8 %6 to i1
  br i1 %tobool6, label %if.else, label %if.then

if.then:                                          ; preds = %land.lhs.true
  tail call void @virtio_notify_irqfd(ptr noundef %call.i, ptr noundef %1) #13
  br label %if.end

if.else:                                          ; preds = %land.lhs.true, %entry
  tail call void @virtio_notify(ptr noundef %call.i, ptr noundef %1) #13
  br label %if.end

if.end:                                           ; preds = %if.else, %if.then
  %sreq = getelementptr inbounds nuw i8, ptr %req, i64 176
  %7 = load ptr, ptr %sreq, align 8
  %tobool7.not = icmp eq ptr %7, null
  br i1 %tobool7.not, label %if.end11, label %if.then8

if.then8:                                         ; preds = %if.end
  %hba_private = getelementptr inbounds nuw i8, ptr %7, i64 40
  store ptr null, ptr %hba_private, align 8
  %8 = load ptr, ptr %sreq, align 8
  tail call void @scsi_req_unref(ptr noundef %8) #13
  br label %if.end11

if.end11:                                         ; preds = %if.then8, %if.end
  tail call void @qemu_iovec_destroy(ptr noundef nonnull %resp_iov) #13
  %qsgl.i = getelementptr inbounds nuw i8, ptr %req, i64 72
  tail call void @qemu_sglist_destroy(ptr noundef nonnull %qsgl.i) #13
  tail call void @g_free(ptr noundef nonnull %req) #13
  ret void
}